target datalayout = "e-m:e-p270:32:32-p271:32:32-p272:64:64-i64:64-i128:128-f80:128-n8:16:32:64-S128"
target triple = "x86_64-pc-linux-gnu"

%struct._dictkeysobject = type { i64, i8, i8, i8, i32, i64, i64, [0 x i8] }

; Function Attrs: inlinehint nounwind uwtable
define internal i64 @dictkeys_get_index(ptr noundef %0, i64 noundef %1) #2 {
  %3 = alloca ptr, align 8
  %4 = alloca i64, align 8
  %5 = alloca i32, align 4
  %6 = alloca i64, align 8
  store ptr %0, ptr %3, align 8, !tbaa !36
  store i64 %1, ptr %4, align 8, !tbaa !39
  call void @llvm.lifetime.start.p0(i64 4, ptr %5) #10
  %7 = load ptr, ptr %3, align 8, !tbaa !36
  %8 = getelementptr inbounds nuw %struct._dictkeysobject, ptr %7, i32 0, i32 1
  %9 = load i8, ptr %8, align 8, !tbaa !38
  %10 = zext i8 %9 to i32
  store i32 %10, ptr %5, align 4, !tbaa !28
  call void @llvm.lifetime.start.p0(i64 8, ptr %6) #10
  %11 = load i32, ptr %5, align 4, !tbaa !28
  %12 = icmp slt i32 %11, 8
  br i1 %12, label %13, label %21

13:                                               ; preds = %2
  %14 = load ptr, ptr %3, align 8, !tbaa !36
  %15 = getelementptr inbounds nuw %struct._dictkeysobject, ptr %14, i32 0, i32 7
  %16 = getelementptr inbounds [0 x i8], ptr %15, i64 0, i64 0
  %17 = load i64, ptr %4, align 8, !tbaa !39
  %18 = getelementptr i8, ptr %16, i64 %17
  %19 = load i8, ptr %18, align 1, !tbaa !38
  %20 = sext i8 %19 to i64
  store i64 %20, ptr %6, align 8, !tbaa !39
  br label %52

21:                                               ; preds = %2
  %22 = load i32, ptr %5, align 4, !tbaa !28
  %23 = icmp slt i32 %22, 16
  br i1 %23, label %24, label %32

24:                                               ; preds = %21
  %25 = load ptr, ptr %3, align 8, !tbaa !36
  %26 = getelementptr inbounds nuw %struct._dictkeysobject, ptr %25, i32 0, i32 7
  %27 = getelementptr inbounds [0 x i8], ptr %26, i64 0, i64 0
  %28 = load i64, ptr %4, align 8, !tbaa !39
  %29 = getelementptr i16, ptr %27, i64 %28
  %30 = load i16, ptr %29, align 2, !tbaa !66
  %31 = sext i16 %30 to i64
  store i64 %31, ptr %6, align 8, !tbaa !39
  br label %51

32:                                               ; preds = %21
  %33 = load i32, ptr %5, align 4, !tbaa !28
  %34 = icmp sge i32 %33, 32
  br i1 %34, label %35, label %42

35:                                               ; preds = %32
  %36 = load ptr, ptr %3, align 8, !tbaa !36
  %37 = getelementptr inbounds nuw %struct._dictkeysobject, ptr %36, i32 0, i32 7
  %38 = getelementptr inbounds [0 x i8], ptr %37, i64 0, i64 0
  %39 = load i64, ptr %4, align 8, !tbaa !39
  %40 = getelementptr i64, ptr %38, i64 %39
  %41 = load i64, ptr %40, align 8, !tbaa !39
  store i64 %41, ptr %6, align 8, !tbaa !39
  br label %50

42:                                               ; preds = %32
  %43 = load ptr, ptr %3, align 8, !tbaa !36
  %44 = getelementptr inbounds nuw %struct._dictkeysobject, ptr %43, i32 0, i32 7
  %45 = getelementptr inbounds [0 x i8], ptr %44, i64 0, i64 0
  %46 = load i64, ptr %4, align 8, !tbaa !39
  %47 = getelementptr i32, ptr %45, i64 %46
  %48 = load i32, ptr %47, align 4, !tbaa !28
  %49 = sext i32 %48 to i64
  store i64 %49, ptr %6, align 8, !tbaa !39
  br label %50

50:                                               ; preds = %42, %35
  br label %51

51:                                               ; preds = %50, %24
  br label %52

52:                                               ; preds = %51, %13
  %53 = load i64, ptr %6, align 8, !tbaa !39
  call void @llvm.lifetime.end.p0(i64 8, ptr %6) #10
  call void @llvm.lifetime.end.p0(i64 4, ptr %5) #10
  ret i64 %53
}

; Function Attrs: nounwind uwtable
define internal i64 @lookdict_index(ptr noundef %0, i64 noundef %1, i64 noundef %2) #0 {
  %4 = alloca i64, align 8
  %5 = alloca ptr, align 8
  %6 = alloca i64, align 8
  %7 = alloca i64, align 8
  %8 = alloca i64, align 8
  %9 = alloca i64, align 8
  %10 = alloca i64, align 8
  %11 = alloca i64, align 8
  %12 = alloca i32, align 4
  store ptr %0, ptr %5, align 8, !tbaa !36
  store i64 %1, ptr %6, align 8, !tbaa !39
  store i64 %2, ptr %7, align 8, !tbaa !39
  call void @llvm.lifetime.start.p0(i64 8, ptr %8) #10
  %13 = load ptr, ptr %5, align 8, !tbaa !36
  %14 = getelementptr inbounds nuw %struct._dictkeysobject, ptr %13, i32 0, i32 1
  %15 = load i8, ptr %14, align 8, !tbaa !38
  %16 = zext i8 %15 to i32
  %17 = zext i32 %16 to i64
  %18 = shl i64 1, %17
  %19 = sub i64 %18, 1
  store i64 %19, ptr %8, align 8, !tbaa !39
  call void @llvm.lifetime.start.p0(i64 8, ptr %9) #10
  %20 = load i64, ptr %6, align 8, !tbaa !39
  store i64 %20, ptr %9, align 8, !tbaa !39
  call void @llvm.lifetime.start.p0(i64 8, ptr %10) #10
  %21 = load i64, ptr %6, align 8, !tbaa !39
  %22 = load i64, ptr %8, align 8, !tbaa !39
  %23 = and i64 %21, %22
  store i64 %23, ptr %10, align 8, !tbaa !39
  br label %24

24:                                               ; preds = %49, %3
  call void @llvm.lifetime.start.p0(i64 8, ptr %11) #10
  %25 = load ptr, ptr %5, align 8, !tbaa !36
  %26 = load i64, ptr %10, align 8, !tbaa !39
  %27 = call i64 @dictkeys_get_index(ptr noundef %25, i64 noundef %26)
  store i64 %27, ptr %11, align 8, !tbaa !39
  %28 = load i64, ptr %11, align 8, !tbaa !39
  %29 = load i64, ptr %7, align 8, !tbaa !39
  %30 = icmp eq i64 %28, %29
  br i1 %30, label %31, label %33

31:                                               ; preds = %24
  %32 = load i64, ptr %10, align 8, !tbaa !39
  store i64 %32, ptr %4, align 8
  store i32 1, ptr %12, align 4
  br label %47

33:                                               ; preds = %24
  %34 = load i64, ptr %11, align 8, !tbaa !39
  %35 = icmp eq i64 %34, -1
  br i1 %35, label %36, label %37

36:                                               ; preds = %33
  store i64 -1, ptr %4, align 8
  store i32 1, ptr %12, align 4
  br label %47

37:                                               ; preds = %33
  %38 = load i64, ptr %9, align 8, !tbaa !39
  %39 = lshr i64 %38, 5
  store i64 %39, ptr %9, align 8, !tbaa !39
  %40 = load i64, ptr %8, align 8, !tbaa !39
  %41 = load i64, ptr %10, align 8, !tbaa !39
  %42 = mul i64 %41, 5
  %43 = load i64, ptr %9, align 8, !tbaa !39
  %44 = add i64 %42, %43
  %45 = add i64 %44, 1
  %46 = and i64 %40, %45
  store i64 %46, ptr %10, align 8, !tbaa !39
  store i32 0, ptr %12, align 4
  br label %47

47:                                               ; preds = %37, %36, %31
  call void @llvm.lifetime.end.p0(i64 8, ptr %11) #10
  %48 = load i32, ptr %12, align 4
  switch i32 %48, label %50 [
    i32 0, label %49
  ]

49:                                               ; preds = %47
  br label %24

50:                                               ; preds = %47
  call void @llvm.lifetime.end.p0(i64 8, ptr %10) #10
  call void @llvm.lifetime.end.p0(i64 8, ptr %9) #10
  call void @llvm.lifetime.end.p0(i64 8, ptr %8) #10
  %51 = load i64, ptr %4, align 8
  ret i64 %51
}