; Function Attrs: nofree norecurse nosync nounwind memory(argmem: read) uwtable
define internal fastcc range(i64 -1, -9223372036854775808) i64 @lookdict_index(ptr noundef readonly captures(none) %0, i64 noundef %1, i64 noundef %2) unnamed_addr #18 {
  %4 = getelementptr inbounds nuw i8, ptr %0, i64 8
  %5 = load i8, ptr %4, align 8, !tbaa !41
  %6 = zext nneg i8 %5 to i64
  %notmask = shl nsw i64 -1, %6
  %7 = xor i64 %notmask, -1
  %8 = icmp ult i8 %5, 8
  %9 = icmp ugt i8 %5, 31
  %10 = getelementptr inbounds nuw i8, ptr %0, i64 32
  br i1 %8, label %.split.us, label %.split

.split.us:                                        ; preds = %3
  %.016.us58 = and i64 %1, %7
  %11 = getelementptr i8, ptr %10, i64 %.016.us58
  %12 = load i8, ptr %11, align 1, !tbaa !41
  %13 = sext i8 %12 to i64
  %14 = icmp eq i64 %2, %13
  br i1 %14, label %.split27.us, label %.lr.ph61

.lr.ph61:                                         ; preds = %.split.us, %dictkeys_get_index.exit.us
  %15 = phi i64 [ %23, %dictkeys_get_index.exit.us ], [ %13, %.split.us ]
  %.016.us60 = phi i64 [ %.016.us, %dictkeys_get_index.exit.us ], [ %.016.us58, %.split.us ]
  %.018.us59 = phi i64 [ %17, %dictkeys_get_index.exit.us ], [ %1, %.split.us ]
  %16 = icmp eq i64 %15, -1
  br i1 %16, label %.split27.us, label %dictkeys_get_index.exit.us

dictkeys_get_index.exit.us:                       ; preds = %.lr.ph61
  %17 = lshr i64 %.018.us59, 5
  %18 = mul nsw i64 %.016.us60, 5
  %19 = add nuw nsw i64 %17, 1
  %20 = add nuw i64 %19, %18
  %.016.us = and i64 %20, %7
  %21 = getelementptr i8, ptr %10, i64 %.016.us
  %22 = load i8, ptr %21, align 1, !tbaa !41
  %23 = sext i8 %22 to i64
  %24 = icmp eq i64 %2, %23
  br i1 %24, label %.split27.us, label %.lr.ph61

.split:                                           ; preds = %3
  %25 = icmp ult i8 %5, 16
  %.016.us3052 = and i64 %1, %7
  br i1 %25, label %.split.split.us, label %.split.split

.split.split.us:                                  ; preds = %.split
  %26 = getelementptr i16, ptr %10, i64 %.016.us3052
  %27 = load i16, ptr %26, align 2, !tbaa !49
  %28 = sext i16 %27 to i64
  %29 = icmp eq i64 %2, %28
  br i1 %29, label %.split27.us, label %.lr.ph55

.lr.ph55:                                         ; preds = %.split.split.us, %dictkeys_get_index.exit.us31
  %30 = phi i64 [ %38, %dictkeys_get_index.exit.us31 ], [ %28, %.split.split.us ]
  %.016.us3054 = phi i64 [ %.016.us30, %dictkeys_get_index.exit.us31 ], [ %.016.us3052, %.split.split.us ]
  %.018.us2853 = phi i64 [ %32, %dictkeys_get_index.exit.us31 ], [ %1, %.split.split.us ]
  %31 = icmp eq i64 %30, -1
  br i1 %31, label %.split27.us, label %dictkeys_get_index.exit.us31

dictkeys_get_index.exit.us31:                     ; preds = %.lr.ph55
  %32 = lshr i64 %.018.us2853, 5
  %33 = mul nsw i64 %.016.us3054, 5
  %34 = add nuw nsw i64 %32, 1
  %35 = add nuw i64 %34, %33
  %.016.us30 = and i64 %35, %7
  %36 = getelementptr i16, ptr %10, i64 %.016.us30
  %37 = load i16, ptr %36, align 2, !tbaa !49
  %38 = sext i16 %37 to i64
  %39 = icmp eq i64 %2, %38
  br i1 %39, label %.split27.us, label %.lr.ph55

.split.split:                                     ; preds = %.split
  br i1 %9, label %.split.split.split.us, label %.split.split.split

.split.split.split.us:                            ; preds = %.split.split
  %40 = getelementptr i64, ptr %10, i64 %.016.us3052
  %41 = load i64, ptr %40, align 8, !tbaa !42
  %42 = icmp eq i64 %41, %2
  br i1 %42, label %.split27.us, label %.lr.ph49

.lr.ph49:                                         ; preds = %.split.split.split.us, %dictkeys_get_index.exit.us38
  %43 = phi i64 [ %50, %dictkeys_get_index.exit.us38 ], [ %41, %.split.split.split.us ]
  %.016.us3748 = phi i64 [ %.016.us37, %dictkeys_get_index.exit.us38 ], [ %.016.us3052, %.split.split.split.us ]
  %.018.us3547 = phi i64 [ %45, %dictkeys_get_index.exit.us38 ], [ %1, %.split.split.split.us ]
  %44 = icmp eq i64 %43, -1
  br i1 %44, label %.split27.us, label %dictkeys_get_index.exit.us38

dictkeys_get_index.exit.us38:                     ; preds = %.lr.ph49
  %45 = lshr i64 %.018.us3547, 5
  %46 = mul i64 %.016.us3748, 5
  %47 = add nuw nsw i64 %45, 1
  %48 = add i64 %47, %46
  %.016.us37 = and i64 %48, %7
  %49 = getelementptr i64, ptr %10, i64 %.016.us37
  %50 = load i64, ptr %49, align 8, !tbaa !42
  %51 = icmp eq i64 %50, %2
  br i1 %51, label %.split27.us, label %.lr.ph49

.split.split.split:                               ; preds = %.split.split
  %52 = getelementptr i32, ptr %10, i64 %.016.us3052
  %53 = load i32, ptr %52, align 4, !tbaa !50
  %54 = sext i32 %53 to i64
  %55 = icmp eq i64 %2, %54
  br i1 %55, label %.split27.us, label %.lr.ph

.lr.ph:                                           ; preds = %.split.split.split, %dictkeys_get_index.exit
  %56 = phi i64 [ %64, %dictkeys_get_index.exit ], [ %54, %.split.split.split ]
  %.01644 = phi i64 [ %.016, %dictkeys_get_index.exit ], [ %.016.us3052, %.split.split.split ]
  %.01843 = phi i64 [ %58, %dictkeys_get_index.exit ], [ %1, %.split.split.split ]
  %57 = icmp eq i64 %56, -1
  br i1 %57, label %.split27.us, label %dictkeys_get_index.exit

dictkeys_get_index.exit:                          ; preds = %.lr.ph
  %58 = lshr i64 %.01843, 5
  %59 = mul nsw i64 %.01644, 5
  %60 = add nuw nsw i64 %58, 1
  %61 = add nuw i64 %60, %59
  %.016 = and i64 %61, %7
  %62 = getelementptr i32, ptr %10, i64 %.016
  %63 = load i32, ptr %62, align 4, !tbaa !50
  %64 = sext i32 %63 to i64
  %65 = icmp eq i64 %2, %64
  br i1 %65, label %.split27.us, label %.lr.ph

.split27.us:                                      ; preds = %dictkeys_get_index.exit, %.lr.ph, %.lr.ph49, %dictkeys_get_index.exit.us38, %dictkeys_get_index.exit.us31, %.lr.ph55, %.lr.ph61, %dictkeys_get_index.exit.us, %.split.split.us, %.split.split.split, %.split.split.split.us, %.split.us
  %.us-phi = phi i64 [ %.016.us58, %.split.us ], [ %.016.us3052, %.split.split.us ], [ %.016.us3052, %.split.split.split.us ], [ %.016.us3052, %.split.split.split ], [ -1, %.lr.ph61 ], [ %.016.us, %dictkeys_get_index.exit.us ], [ -1, %.lr.ph55 ], [ %.016.us30, %dictkeys_get_index.exit.us31 ], [ -1, %.lr.ph49 ], [ %.016.us37, %dictkeys_get_index.exit.us38 ], [ %.016, %dictkeys_get_index.exit ], [ -1, %.lr.ph ]
  ret i64 %.us-phi
}